target datalayout = "e-m:e-p270:32:32-p271:32:32-p272:64:64-i64:64-i128:128-f80:128-n8:16:32:64-S128"
target triple = "x86_64-pc-linux-gnu"

%struct.PaAlsaHostApiRepresentation = type { %struct.PaUtilHostApiRepresentation, %struct.PaUtilStreamInterface, %struct.PaUtilStreamInterface, ptr, i32, i32 }
%struct.PaUtilHostApiRepresentation = type { %struct.PaUtilPrivatePaFrontHostApiInfo, %struct.PaHostApiInfo, ptr, ptr, ptr, ptr }
%struct.PaUtilPrivatePaFrontHostApiInfo = type { i64 }
%struct.PaHostApiInfo = type { i32, i32, ptr, i32, i32, i32 }
%struct.PaUtilStreamInterface = type { ptr, ptr, ptr, ptr, ptr, ptr, ptr, ptr, ptr, ptr, ptr, ptr }
%struct.PaStreamParameters = type { i32, i32, i64, double, ptr }
%struct.PaAlsaStreamComponent = type { i64, i32, i32, i32, i32, i32, ptr, i32, i32, i32, i32, ptr, i64, i64, i32, i32, i32, ptr, i64, i32, ptr }
%struct.PaAlsaDeviceInfo = type { %struct.PaDeviceInfo, ptr, i32, i32, i32 }
%struct.PaDeviceInfo = type { i32, ptr, i32, i32, i32, double, double, double, double, double }
%struct.PaAlsaStreamInfo = type { i64, i32, i64, ptr }

@paUtilErr_ = internal global i32 0, align 4
@alsa_snd_pcm_poll_descriptors_count = internal global ptr null, align 8
@.str.110 = private unnamed_addr constant [4 x i8] c"hw:\00", align 1

; Function Attrs: nounwind uwtable
define internal i32 @Pa2AlsaFormat(i64 noundef %0) #0 {
  %2 = alloca i32, align 4
  %3 = alloca i64, align 8
  store i64 %0, ptr %3, align 8, !tbaa !37
  %4 = load i64, ptr %3, align 8, !tbaa !37
  switch i64 %4, label %11 [
    i64 1, label %5
    i64 8, label %6
    i64 4, label %7
    i64 2, label %8
    i64 16, label %9
    i64 32, label %10
  ]

5:                                                ; preds = %1
  store i32 14, ptr %2, align 4
  br label %12

6:                                                ; preds = %1
  store i32 2, ptr %2, align 4
  br label %12

7:                                                ; preds = %1
  store i32 32, ptr %2, align 4
  br label %12

8:                                                ; preds = %1
  store i32 10, ptr %2, align 4
  br label %12

9:                                                ; preds = %1
  store i32 0, ptr %2, align 4
  br label %12

10:                                               ; preds = %1
  store i32 1, ptr %2, align 4
  br label %12

11:                                               ; preds = %1
  store i32 -1, ptr %2, align 4
  br label %12

12:                                               ; preds = %11, %10, %9, %8, %7, %6, %5
  %13 = load i32, ptr %2, align 4
  ret i32 %13
}

; Function Attrs: nounwind uwtable
define internal ptr @GetDeviceInfo(ptr noundef %0, i32 noundef %1) #0 {
  %3 = alloca ptr, align 8
  %4 = alloca i32, align 4
  store ptr %0, ptr %3, align 8, !tbaa !24
  store i32 %1, ptr %4, align 4, !tbaa !8
  %5 = load ptr, ptr %3, align 8, !tbaa !24
  %6 = getelementptr inbounds nuw %struct.PaUtilHostApiRepresentation, ptr %5, i32 0, i32 2
  %7 = load ptr, ptr %6, align 8, !tbaa !88
  %8 = load i32, ptr %4, align 4, !tbaa !8
  %9 = sext i32 %8 to i64
  %10 = getelementptr inbounds ptr, ptr %7, i64 %9
  %11 = load ptr, ptr %10, align 8, !tbaa !136
  ret ptr %11
}

; Function Attrs: nounwind uwtable
define internal i32 @PaAlsaStreamComponent_Initialize(ptr noundef %0, ptr noundef %1, ptr noundef %2, i32 noundef %3, i32 noundef %4) #0 {
  %6 = alloca ptr, align 8
  %7 = alloca ptr, align 8
  %8 = alloca ptr, align 8
  %9 = alloca i32, align 4
  %10 = alloca i32, align 4
  %11 = alloca i32, align 4
  %12 = alloca i64, align 8
  %13 = alloca i64, align 8
  %14 = alloca ptr, align 8
  store ptr %0, ptr %6, align 8, !tbaa !32
  store ptr %1, ptr %7, align 8, !tbaa !12
  store ptr %2, ptr %8, align 8, !tbaa !33
  store i32 %3, ptr %9, align 4, !tbaa !8
  store i32 %4, ptr %10, align 4, !tbaa !8
  call void @llvm.lifetime.start.p0(i64 4, ptr %11) #17
  store i32 0, ptr %11, align 4, !tbaa !8
  call void @llvm.lifetime.start.p0(i64 8, ptr %12) #17
  %15 = load ptr, ptr %8, align 8, !tbaa !33
  %16 = getelementptr inbounds nuw %struct.PaStreamParameters, ptr %15, i32 0, i32 2
  %17 = load i64, ptr %16, align 8, !tbaa !42
  store i64 %17, ptr %12, align 8, !tbaa !37
  call void @llvm.lifetime.start.p0(i64 8, ptr %13) #17
  store i64 0, ptr %13, align 8, !tbaa !37
  %18 = load ptr, ptr %6, align 8, !tbaa !32
  call void @llvm.memset.p0.i64(ptr align 8 %18, i8 0, i64 128, i1 false)
  %19 = load ptr, ptr %8, align 8, !tbaa !33
  %20 = getelementptr inbounds nuw %struct.PaStreamParameters, ptr %19, i32 0, i32 4
  %21 = load ptr, ptr %20, align 8, !tbaa !160
  %22 = icmp eq ptr null, %21
  br i1 %22, label %23, label %72

23:                                               ; preds = %5
  call void @llvm.lifetime.start.p0(i64 8, ptr %14) #17
  %24 = load ptr, ptr %7, align 8, !tbaa !12
  %25 = getelementptr inbounds nuw %struct.PaAlsaHostApiRepresentation, ptr %24, i32 0, i32 0
  %26 = load ptr, ptr %8, align 8, !tbaa !33
  %27 = getelementptr inbounds nuw %struct.PaStreamParameters, ptr %26, i32 0, i32 0
  %28 = load i32, ptr %27, align 8, !tbaa !159
  %29 = call ptr @GetDeviceInfo(ptr noundef %25, i32 noundef %28)
  store ptr %29, ptr %14, align 8, !tbaa !89
  %30 = load ptr, ptr %8, align 8, !tbaa !33
  %31 = getelementptr inbounds nuw %struct.PaStreamParameters, ptr %30, i32 0, i32 1
  %32 = load i32, ptr %31, align 4, !tbaa !40
  %33 = load i32, ptr %9, align 4, !tbaa !8
  %34 = icmp eq i32 0, %33
  br i1 %34, label %35, label %39

35:                                               ; preds = %23
  %36 = load ptr, ptr %14, align 8, !tbaa !89
  %37 = getelementptr inbounds nuw %struct.PaAlsaDeviceInfo, ptr %36, i32 0, i32 3
  %38 = load i32, ptr %37, align 4, !tbaa !163
  br label %43

39:                                               ; preds = %23
  %40 = load ptr, ptr %14, align 8, !tbaa !89
  %41 = getelementptr inbounds nuw %struct.PaAlsaDeviceInfo, ptr %40, i32 0, i32 4
  %42 = load i32, ptr %41, align 8, !tbaa !164
  br label %43

43:                                               ; preds = %39, %35
  %44 = phi i32 [ %38, %35 ], [ %42, %39 ]
  %45 = icmp sgt i32 %32, %44
  br i1 %45, label %46, label %50

46:                                               ; preds = %43
  %47 = load ptr, ptr %8, align 8, !tbaa !33
  %48 = getelementptr inbounds nuw %struct.PaStreamParameters, ptr %47, i32 0, i32 1
  %49 = load i32, ptr %48, align 4, !tbaa !40
  br label %63

50:                                               ; preds = %43
  %51 = load i32, ptr %9, align 4, !tbaa !8
  %52 = icmp eq i32 0, %51
  br i1 %52, label %53, label %57

53:                                               ; preds = %50
  %54 = load ptr, ptr %14, align 8, !tbaa !89
  %55 = getelementptr inbounds nuw %struct.PaAlsaDeviceInfo, ptr %54, i32 0, i32 3
  %56 = load i32, ptr %55, align 4, !tbaa !163
  br label %61

57:                                               ; preds = %50
  %58 = load ptr, ptr %14, align 8, !tbaa !89
  %59 = getelementptr inbounds nuw %struct.PaAlsaDeviceInfo, ptr %58, i32 0, i32 4
  %60 = load i32, ptr %59, align 8, !tbaa !164
  br label %61

61:                                               ; preds = %57, %53
  %62 = phi i32 [ %56, %53 ], [ %60, %57 ]
  br label %63

63:                                               ; preds = %61, %46
  %64 = phi i32 [ %49, %46 ], [ %62, %61 ]
  %65 = load ptr, ptr %6, align 8, !tbaa !32
  %66 = getelementptr inbounds nuw %struct.PaAlsaStreamComponent, ptr %65, i32 0, i32 2
  store i32 %64, ptr %66, align 4, !tbaa !175
  %67 = load ptr, ptr %14, align 8, !tbaa !89
  %68 = getelementptr inbounds nuw %struct.PaAlsaDeviceInfo, ptr %67, i32 0, i32 2
  %69 = load i32, ptr %68, align 8, !tbaa !144
  %70 = load ptr, ptr %6, align 8, !tbaa !32
  %71 = getelementptr inbounds nuw %struct.PaAlsaStreamComponent, ptr %70, i32 0, i32 9
  store i32 %69, ptr %71, align 8, !tbaa !176
  call void @llvm.lifetime.end.p0(i64 8, ptr %14) #17
  br label %89

72:                                               ; preds = %5
  %73 = load ptr, ptr %8, align 8, !tbaa !33
  %74 = getelementptr inbounds nuw %struct.PaStreamParameters, ptr %73, i32 0, i32 1
  %75 = load i32, ptr %74, align 4, !tbaa !40
  %76 = load ptr, ptr %6, align 8, !tbaa !32
  %77 = getelementptr inbounds nuw %struct.PaAlsaStreamComponent, ptr %76, i32 0, i32 2
  store i32 %75, ptr %77, align 4, !tbaa !175
  %78 = load ptr, ptr %8, align 8, !tbaa !33
  %79 = getelementptr inbounds nuw %struct.PaStreamParameters, ptr %78, i32 0, i32 4
  %80 = load ptr, ptr %79, align 8, !tbaa !160
  %81 = getelementptr inbounds nuw %struct.PaAlsaStreamInfo, ptr %80, i32 0, i32 3
  %82 = load ptr, ptr %81, align 8, !tbaa !121
  %83 = call i32 @strncmp(ptr noundef @.str.110, ptr noundef %82, i64 noundef 3) #18
  %84 = icmp ne i32 %83, 0
  br i1 %84, label %85, label %88

85:                                               ; preds = %72
  %86 = load ptr, ptr %6, align 8, !tbaa !32
  %87 = getelementptr inbounds nuw %struct.PaAlsaStreamComponent, ptr %86, i32 0, i32 9
  store i32 1, ptr %87, align 8, !tbaa !176
  br label %88

88:                                               ; preds = %85, %72
  br label %89

89:                                               ; preds = %88, %63
  %90 = load ptr, ptr %6, align 8, !tbaa !32
  %91 = getelementptr inbounds nuw %struct.PaAlsaStreamComponent, ptr %90, i32 0, i32 9
  %92 = load i32, ptr %91, align 8, !tbaa !176
  %93 = icmp ne i32 %92, 0
  br i1 %93, label %94, label %102

94:                                               ; preds = %89
  %95 = load ptr, ptr %7, align 8, !tbaa !12
  %96 = getelementptr inbounds nuw %struct.PaAlsaHostApiRepresentation, ptr %95, i32 0, i32 5
  %97 = load i32, ptr %96, align 4, !tbaa !23
  %98 = icmp ult i32 %97, 65552
  br i1 %98, label %99, label %102

99:                                               ; preds = %94
  %100 = load ptr, ptr %6, align 8, !tbaa !32
  %101 = getelementptr inbounds nuw %struct.PaAlsaStreamComponent, ptr %100, i32 0, i32 10
  store i32 1, ptr %101, align 4, !tbaa !177
  br label %102

102:                                              ; preds = %99, %94, %89
  %103 = load ptr, ptr %8, align 8, !tbaa !33
  %104 = getelementptr inbounds nuw %struct.PaStreamParameters, ptr %103, i32 0, i32 0
  %105 = load i32, ptr %104, align 8, !tbaa !159
  %106 = load ptr, ptr %6, align 8, !tbaa !32
  %107 = getelementptr inbounds nuw %struct.PaAlsaStreamComponent, ptr %106, i32 0, i32 8
  store i32 %105, ptr %107, align 4, !tbaa !178
  br label %108

108:                                              ; preds = %102
  %109 = load ptr, ptr %7, align 8, !tbaa !12
  %110 = getelementptr inbounds nuw %struct.PaAlsaHostApiRepresentation, ptr %109, i32 0, i32 0
  %111 = load ptr, ptr %8, align 8, !tbaa !33
  %112 = load i32, ptr %9, align 4, !tbaa !8
  %113 = load ptr, ptr %6, align 8, !tbaa !32
  %114 = getelementptr inbounds nuw %struct.PaAlsaStreamComponent, ptr %113, i32 0, i32 11
  %115 = call i32 @AlsaOpen(ptr noundef %110, ptr noundef %111, i32 noundef %112, ptr noundef %114)
  store i32 %115, ptr @paUtilErr_, align 4, !tbaa !8
  %116 = icmp slt i32 %115, 0
  %117 = zext i1 %116 to i32
  %118 = sext i32 %117 to i64
  %119 = call i64 @llvm.expect.i64(i64 %118, i64 0)
  %120 = icmp ne i64 %119, 0
  br i1 %120, label %121, label %123

121:                                              ; preds = %108
  call void (ptr, ...) @PaUtil_DebugPrint(ptr noundef @.str.111)
  %122 = load i32, ptr @paUtilErr_, align 4, !tbaa !8
  store i32 %122, ptr %11, align 4, !tbaa !8
  br label %208

123:                                              ; preds = %108
  br label %124

124:                                              ; preds = %123
  br label %125

125:                                              ; preds = %124
  %126 = load ptr, ptr @alsa_snd_pcm_poll_descriptors_count, align 8, !tbaa !32
  %127 = load ptr, ptr %6, align 8, !tbaa !32
  %128 = getelementptr inbounds nuw %struct.PaAlsaStreamComponent, ptr %127, i32 0, i32 11
  %129 = load ptr, ptr %128, align 8, !tbaa !179
  %130 = call i32 %126(ptr noundef %129)
  %131 = load ptr, ptr %6, align 8, !tbaa !32
  %132 = getelementptr inbounds nuw %struct.PaAlsaStreamComponent, ptr %131, i32 0, i32 15
  store i32 %130, ptr %132, align 4, !tbaa !180
  br label %133

133:                                              ; preds = %125
  %134 = load ptr, ptr %6, align 8, !tbaa !32
  %135 = getelementptr inbounds nuw %struct.PaAlsaStreamComponent, ptr %134, i32 0, i32 11
  %136 = load ptr, ptr %135, align 8, !tbaa !179
  %137 = call i64 @GetAvailableFormats(ptr noundef %136)
  %138 = load i64, ptr %12, align 8, !tbaa !37
  %139 = call i64 @PaUtil_SelectClosestAvailableFormat(i64 noundef %137, i64 noundef %138)
  store i64 %139, ptr %13, align 8, !tbaa !37
  %140 = trunc i64 %139 to i32
  store i32 %140, ptr @paUtilErr_, align 4, !tbaa !8
  %141 = icmp slt i32 %140, 0
  %142 = zext i1 %141 to i32
  %143 = sext i32 %142 to i64
  %144 = call i64 @llvm.expect.i64(i64 %143, i64 0)
  %145 = icmp ne i64 %144, 0
  br i1 %145, label %146, label %148

146:                                              ; preds = %133
  call void (ptr, ...) @PaUtil_DebugPrint(ptr noundef @.str.112)
  %147 = load i32, ptr @paUtilErr_, align 4, !tbaa !8
  store i32 %147, ptr %11, align 4, !tbaa !8
  br label %208

148:                                              ; preds = %133
  br label %149

149:                                              ; preds = %148
  br label %150

150:                                              ; preds = %149
  %151 = load i64, ptr %13, align 8, !tbaa !37
  %152 = load ptr, ptr %6, align 8, !tbaa !32
  %153 = getelementptr inbounds nuw %struct.PaAlsaStreamComponent, ptr %152, i32 0, i32 0
  store i64 %151, ptr %153, align 8, !tbaa !181
  %154 = load i64, ptr %13, align 8, !tbaa !37
  %155 = call i32 @Pa2AlsaFormat(i64 noundef %154)
  %156 = load ptr, ptr %6, align 8, !tbaa !32
  %157 = getelementptr inbounds nuw %struct.PaAlsaStreamComponent, ptr %156, i32 0, i32 14
  store i32 %155, ptr %157, align 8, !tbaa !182
  %158 = load i64, ptr %12, align 8, !tbaa !37
  %159 = and i64 %158, 2147483648
  %160 = icmp ne i64 %159, 0
  %161 = xor i1 %160, true
  %162 = zext i1 %161 to i32
  %163 = load ptr, ptr %6, align 8, !tbaa !32
  %164 = getelementptr inbounds nuw %struct.PaAlsaStreamComponent, ptr %163, i32 0, i32 3
  store i32 %162, ptr %164, align 8, !tbaa !183
  %165 = load ptr, ptr %6, align 8, !tbaa !32
  %166 = getelementptr inbounds nuw %struct.PaAlsaStreamComponent, ptr %165, i32 0, i32 4
  store i32 %162, ptr %166, align 4, !tbaa !184
  %167 = load ptr, ptr %8, align 8, !tbaa !33
  %168 = getelementptr inbounds nuw %struct.PaStreamParameters, ptr %167, i32 0, i32 1
  %169 = load i32, ptr %168, align 4, !tbaa !40
  %170 = load ptr, ptr %6, align 8, !tbaa !32
  %171 = getelementptr inbounds nuw %struct.PaAlsaStreamComponent, ptr %170, i32 0, i32 1
  store i32 %169, ptr %171, align 8, !tbaa !185
  %172 = load i32, ptr %9, align 4, !tbaa !8
  %173 = load ptr, ptr %6, align 8, !tbaa !32
  %174 = getelementptr inbounds nuw %struct.PaAlsaStreamComponent, ptr %173, i32 0, i32 19
  store i32 %172, ptr %174, align 8, !tbaa !186
  %175 = load ptr, ptr %6, align 8, !tbaa !32
  %176 = getelementptr inbounds nuw %struct.PaAlsaStreamComponent, ptr %175, i32 0, i32 5
  store i32 0, ptr %176, align 8, !tbaa !187
  %177 = load ptr, ptr %6, align 8, !tbaa !32
  %178 = getelementptr inbounds nuw %struct.PaAlsaStreamComponent, ptr %177, i32 0, i32 6
  store ptr null, ptr %178, align 8, !tbaa !188
  %179 = load ptr, ptr %6, align 8, !tbaa !32
  %180 = getelementptr inbounds nuw %struct.PaAlsaStreamComponent, ptr %179, i32 0, i32 7
  store i32 0, ptr %180, align 8, !tbaa !189
  %181 = load i32, ptr %10, align 4, !tbaa !8
  %182 = icmp ne i32 %181, 0
  br i1 %182, label %207, label %183

183:                                              ; preds = %150
  %184 = load ptr, ptr %6, align 8, !tbaa !32
  %185 = getelementptr inbounds nuw %struct.PaAlsaStreamComponent, ptr %184, i32 0, i32 3
  %186 = load i32, ptr %185, align 8, !tbaa !183
  %187 = icmp ne i32 %186, 0
  br i1 %187, label %207, label %188

188:                                              ; preds = %183
  br label %189

189:                                              ; preds = %188
  %190 = load ptr, ptr %6, align 8, !tbaa !32
  %191 = getelementptr inbounds nuw %struct.PaAlsaStreamComponent, ptr %190, i32 0, i32 1
  %192 = load i32, ptr %191, align 8, !tbaa !185
  %193 = sext i32 %192 to i64
  %194 = mul i64 8, %193
  %195 = call ptr @PaUtil_AllocateZeroInitializedMemory(i64 noundef %194)
  %196 = load ptr, ptr %6, align 8, !tbaa !32
  %197 = getelementptr inbounds nuw %struct.PaAlsaStreamComponent, ptr %196, i32 0, i32 17
  store ptr %195, ptr %197, align 8, !tbaa !190
  %198 = icmp eq ptr %195, null
  %199 = zext i1 %198 to i32
  %200 = sext i32 %199 to i64
  %201 = call i64 @llvm.expect.i64(i64 %200, i64 0)
  %202 = icmp ne i64 %201, 0
  br i1 %202, label %203, label %204

203:                                              ; preds = %189
  call void (ptr, ...) @PaUtil_DebugPrint(ptr noundef @.str.113)
  store i32 -9992, ptr %11, align 4, !tbaa !8
  br label %208

204:                                              ; preds = %189
  br label %205

205:                                              ; preds = %204
  br label %206

206:                                              ; preds = %205
  br label %207

207:                                              ; preds = %206, %183, %150
  br label %208

208:                                              ; preds = %207, %203, %146, %121
  %209 = load i64, ptr %13, align 8, !tbaa !37
  %210 = icmp eq i64 %209, -9994
  br i1 %210, label %211, label %215

211:                                              ; preds = %208
  %212 = load ptr, ptr %6, align 8, !tbaa !32
  %213 = getelementptr inbounds nuw %struct.PaAlsaStreamComponent, ptr %212, i32 0, i32 11
  %214 = load ptr, ptr %213, align 8, !tbaa !179
  call void @LogAllAvailableFormats(ptr noundef %214)
  br label %215

215:                                              ; preds = %211, %208
  %216 = load i32, ptr %11, align 4, !tbaa !8
  call void @llvm.lifetime.end.p0(i64 8, ptr %13) #17
  call void @llvm.lifetime.end.p0(i64 8, ptr %12) #17
  call void @llvm.lifetime.end.p0(i64 4, ptr %11) #17
  ret i32 %216
}