; Function Attrs: nounwind uwtable
define internal fastcc i32 @PaAlsaStreamComponent_Initialize(ptr noundef nonnull initializes((0, 128)) %0, ptr noundef readonly captures(none) %1, ptr noundef nonnull readonly captures(none) %2, i32 noundef range(i32 0, 2) %3, i32 noundef range(i32 0, 2) %4) unnamed_addr #2 {
  %6 = getelementptr inbounds nuw i8, ptr %2, i64 8
  %7 = load i64, ptr %6, align 8, !tbaa !44
  tail call void @llvm.memset.p0.i64(ptr noundef nonnull align 8 dereferenceable(128) %0, i8 0, i64 128, i1 false)
  %8 = getelementptr inbounds nuw i8, ptr %2, i64 24
  %9 = load ptr, ptr %8, align 8, !tbaa !34
  %10 = icmp eq ptr %9, null
  br i1 %10, label %29, label %sub_0

sub_0:                                            ; preds = %5
  %11 = getelementptr inbounds nuw i8, ptr %2, i64 4
  %12 = load i32, ptr %11, align 4, !tbaa !39
  %13 = getelementptr inbounds nuw i8, ptr %0, i64 12
  store i32 %12, ptr %13, align 4, !tbaa !207
  %14 = getelementptr inbounds nuw i8, ptr %9, i64 24
  %15 = load ptr, ptr %14, align 8, !tbaa !43
  %16 = load i8, ptr %15, align 1
  %17 = zext i8 %16 to i32
  %18 = sub nsw i32 104, %17
  %.not62 = icmp eq i8 %16, 104
  br i1 %.not62, label %sub_1, label %.tail

sub_1:                                            ; preds = %sub_0
  %19 = getelementptr inbounds nuw i8, ptr %15, i64 1
  %20 = load i8, ptr %19, align 1
  %21 = zext i8 %20 to i32
  %22 = sub nsw i32 119, %21
  %.not63 = icmp eq i8 %20, 119
  br i1 %.not63, label %sub_2, label %.tail

sub_2:                                            ; preds = %sub_1
  %23 = getelementptr inbounds nuw i8, ptr %15, i64 2
  %24 = load i8, ptr %23, align 1
  %25 = zext i8 %24 to i32
  %26 = sub nsw i32 58, %25
  br label %.tail

.tail:                                            ; preds = %sub_0, %sub_1, %sub_2
  %27 = phi i32 [ %18, %sub_0 ], [ %22, %sub_1 ], [ %26, %sub_2 ]
  %.not = icmp eq i32 %27, 0
  br i1 %.not, label %.thread64, label %.thread66

.thread66:                                        ; preds = %.tail
  %28 = getelementptr inbounds nuw i8, ptr %0, i64 48
  store i32 1, ptr %28, align 8, !tbaa !208
  br label %45

29:                                               ; preds = %5
  %30 = load i32, ptr %2, align 8, !tbaa !31
  %31 = getelementptr i8, ptr %1, i64 40
  %.val = load ptr, ptr %31, align 8, !tbaa !36
  %32 = sext i32 %30 to i64
  %33 = getelementptr inbounds ptr, ptr %.val, i64 %32
  %34 = load ptr, ptr %33, align 8, !tbaa !37
  %35 = getelementptr inbounds nuw i8, ptr %2, i64 4
  %36 = load i32, ptr %35, align 4, !tbaa !39
  %37 = icmp eq i32 %3, 0
  %.in.v = select i1 %37, i64 84, i64 88
  %.in = getelementptr inbounds nuw i8, ptr %34, i64 %.in.v
  %38 = load i32, ptr %.in, align 4, !tbaa !3
  %39 = tail call i32 @llvm.smax.i32(i32 %36, i32 %38)
  %40 = getelementptr inbounds nuw i8, ptr %0, i64 12
  store i32 %39, ptr %40, align 4, !tbaa !207
  %41 = getelementptr inbounds nuw i8, ptr %34, i64 80
  %42 = load i32, ptr %41, align 8, !tbaa !168
  %43 = getelementptr inbounds nuw i8, ptr %0, i64 48
  store i32 %42, ptr %43, align 8, !tbaa !208
  %44 = icmp eq i32 %42, 0
  br i1 %44, label %.thread64, label %45

45:                                               ; preds = %.thread66, %29
  %46 = getelementptr inbounds nuw i8, ptr %1, i64 276
  %47 = load i32, ptr %46, align 4, !tbaa !21
  %48 = icmp ult i32 %47, 65552
  br i1 %48, label %49, label %.thread64

49:                                               ; preds = %45
  %50 = getelementptr inbounds nuw i8, ptr %0, i64 52
  store i32 1, ptr %50, align 4, !tbaa !209
  br label %.thread64

.thread64:                                        ; preds = %.tail, %49, %45, %29
  %51 = load i32, ptr %2, align 8, !tbaa !31
  %52 = getelementptr inbounds nuw i8, ptr %0, i64 44
  store i32 %51, ptr %52, align 4, !tbaa !210
  %53 = getelementptr inbounds nuw i8, ptr %0, i64 56
  %54 = tail call fastcc i32 @AlsaOpen(ptr noundef %1, ptr noundef nonnull %2, i32 noundef %3, ptr noundef %53)
  store i32 %54, ptr @paUtilErr_, align 4, !tbaa !3
  %55 = icmp slt i32 %54, 0
  br i1 %55, label %56, label %58, !prof !9

56:                                               ; preds = %.thread64
  tail call void (ptr, ...) @PaUtil_DebugPrint(ptr noundef nonnull @.str.111) #25
  %57 = load i32, ptr @paUtilErr_, align 4, !tbaa !3
  br label %.thread

58:                                               ; preds = %.thread64
  %59 = load ptr, ptr %53, align 8, !tbaa !147
  %60 = tail call i32 @snd_pcm_poll_descriptors_count(ptr noundef %59) #25, !callees !211
  %61 = getelementptr inbounds nuw i8, ptr %0, i64 84
  store i32 %60, ptr %61, align 4, !tbaa !212
  %62 = load ptr, ptr %53, align 8, !tbaa !147
  %63 = tail call fastcc i64 @GetAvailableFormats(ptr noundef %62)
  %64 = tail call i64 @PaUtil_SelectClosestAvailableFormat(i64 noundef %63, i64 noundef %7) #25
  %65 = trunc i64 %64 to i32
  store i32 %65, ptr @paUtilErr_, align 4, !tbaa !3
  %66 = icmp slt i32 %65, 0
  br i1 %66, label %93, label %67, !prof !9

67:                                               ; preds = %58
  store i64 %64, ptr %0, align 8, !tbaa !213
  switch i64 %64, label %73 [
    i64 1, label %Pa2AlsaFormat.exit
    i64 8, label %68
    i64 4, label %69
    i64 2, label %70
    i64 16, label %71
    i64 32, label %72
  ]

68:                                               ; preds = %67
  br label %Pa2AlsaFormat.exit

69:                                               ; preds = %67
  br label %Pa2AlsaFormat.exit

70:                                               ; preds = %67
  br label %Pa2AlsaFormat.exit

71:                                               ; preds = %67
  br label %Pa2AlsaFormat.exit

72:                                               ; preds = %67
  br label %Pa2AlsaFormat.exit

73:                                               ; preds = %67
  br label %Pa2AlsaFormat.exit

Pa2AlsaFormat.exit:                               ; preds = %67, %68, %69, %70, %71, %72, %73
  %.0.i = phi i32 [ -1, %73 ], [ 1, %72 ], [ 0, %71 ], [ 10, %70 ], [ 32, %69 ], [ 2, %68 ], [ 14, %67 ]
  %74 = getelementptr inbounds nuw i8, ptr %0, i64 80
  store i32 %.0.i, ptr %74, align 8, !tbaa !214
  %75 = and i64 %7, 2147483648
  %.not56 = icmp eq i64 %75, 0
  %76 = zext i1 %.not56 to i32
  %77 = getelementptr inbounds nuw i8, ptr %0, i64 16
  store i32 %76, ptr %77, align 8, !tbaa !215
  %78 = getelementptr inbounds nuw i8, ptr %0, i64 20
  store i32 %76, ptr %78, align 4, !tbaa !216
  %79 = getelementptr inbounds nuw i8, ptr %2, i64 4
  %80 = load i32, ptr %79, align 4, !tbaa !39
  %81 = getelementptr inbounds nuw i8, ptr %0, i64 8
  store i32 %80, ptr %81, align 8, !tbaa !217
  %82 = getelementptr inbounds nuw i8, ptr %0, i64 112
  store i32 %3, ptr %82, align 8, !tbaa !218
  %83 = getelementptr inbounds nuw i8, ptr %0, i64 24
  store i32 0, ptr %83, align 8, !tbaa !219
  %84 = getelementptr inbounds nuw i8, ptr %0, i64 32
  store ptr null, ptr %84, align 8, !tbaa !206
  %85 = getelementptr inbounds nuw i8, ptr %0, i64 40
  store i32 0, ptr %85, align 8, !tbaa !220
  %.not57 = icmp ne i32 %4, 0
  %or.cond.not = select i1 %.not57, i1 true, i1 %.not56
  br i1 %or.cond.not, label %.thread, label %86

86:                                               ; preds = %Pa2AlsaFormat.exit
  %87 = sext i32 %80 to i64
  %88 = shl nsw i64 %87, 3
  %89 = tail call ptr @PaUtil_AllocateZeroInitializedMemory(i64 noundef %88) #25
  %90 = getelementptr inbounds nuw i8, ptr %0, i64 96
  store ptr %89, ptr %90, align 8, !tbaa !205
  %91 = icmp eq ptr %89, null
  br i1 %91, label %92, label %.thread, !prof !9

92:                                               ; preds = %86
  tail call void (ptr, ...) @PaUtil_DebugPrint(ptr noundef nonnull @.str.113) #25
  br label %.thread

93:                                               ; preds = %58
  tail call void (ptr, ...) @PaUtil_DebugPrint(ptr noundef nonnull @.str.112) #25
  %94 = load i32, ptr @paUtilErr_, align 4, !tbaa !3
  %95 = icmp eq i64 %64, -9994
  br i1 %95, label %96, label %.thread

96:                                               ; preds = %93
  %97 = load ptr, ptr %53, align 8, !tbaa !147
  tail call fastcc void @LogAllAvailableFormats(ptr noundef %97)
  br label %.thread

.thread:                                          ; preds = %86, %92, %Pa2AlsaFormat.exit, %56, %96, %93
  %.061 = phi i32 [ %94, %96 ], [ %94, %93 ], [ 0, %86 ], [ -9992, %92 ], [ 0, %Pa2AlsaFormat.exit ], [ %57, %56 ]
  ret i32 %.061
}